target datalayout = "e-m:e-p270:32:32-p271:32:32-p272:64:64-i64:64-i128:128-f80:128-n8:16:32:64-S128"
target triple = "x86_64-unknown-linux-gnu"

%"struct.url::URLComponentSource" = type { ptr, ptr, ptr, ptr, ptr, ptr, ptr, ptr }
%"struct.url::Parsed" = type { %"struct.url::Component", %"struct.url::Component", %"struct.url::Component", %"struct.url::Component", %"struct.url::Component", %"struct.url::Component", %"struct.url::Component", %"struct.url::Component", ptr }
%"struct.url::Component" = type { i32, i32 }

; Function Attrs: mustprogress nounwind uwtable
define linkonce_odr dso_local void @_ZN3url9Component5resetEv(ptr noundef nonnull align 4 dereferenceable(8) %this) #1 comdat align 2 {
entry:
  %this.addr = alloca ptr, align 8
  store ptr %this, ptr %this.addr, align 8
  %this1 = load ptr, ptr %this.addr, align 8
  %begin = getelementptr inbounds %"struct.url::Component", ptr %this1, i32 0, i32 0
  store i32 0, ptr %begin, align 4
  %len = getelementptr inbounds %"struct.url::Component", ptr %this1, i32 0, i32 1
  store i32 -1, ptr %len, align 4
  ret void
}

; Function Attrs: mustprogress uwtable
define internal noundef zeroext i1 @_ZN3url12_GLOBAL__N_121DoCanonicalizePathURLIchEEbRKNS_18URLComponentSourceIT_EERKNS_6ParsedEPNS_12CanonOutputTIcEEPS7_(ptr noundef nonnull align 8 dereferenceable(64) %source, ptr noundef nonnull align 8 dereferenceable(72) %parsed, ptr noundef %output, ptr noundef %new_parsed) #0 {
entry:
  %source.addr = alloca ptr, align 8
  %parsed.addr = alloca ptr, align 8
  %output.addr = alloca ptr, align 8
  %new_parsed.addr = alloca ptr, align 8
  %success = alloca i8, align 1
  store ptr %source, ptr %source.addr, align 8
  store ptr %parsed, ptr %parsed.addr, align 8
  store ptr %output, ptr %output.addr, align 8
  store ptr %new_parsed, ptr %new_parsed.addr, align 8
  %0 = load ptr, ptr %source.addr, align 8
  %scheme = getelementptr inbounds %"struct.url::URLComponentSource", ptr %0, i32 0, i32 0
  %1 = load ptr, ptr %scheme, align 8
  %2 = load ptr, ptr %parsed.addr, align 8
  %scheme1 = getelementptr inbounds %"struct.url::Parsed", ptr %2, i32 0, i32 0
  %3 = load ptr, ptr %output.addr, align 8
  %4 = load ptr, ptr %new_parsed.addr, align 8
  %scheme2 = getelementptr inbounds %"struct.url::Parsed", ptr %4, i32 0, i32 0
  %call = call noundef zeroext i1 @_ZN3url18CanonicalizeSchemeEPKcRKNS_9ComponentEPNS_12CanonOutputTIcEEPS2_(ptr noundef %1, ptr noundef nonnull align 4 dereferenceable(8) %scheme1, ptr noundef %3, ptr noundef %scheme2)
  %frombool = zext i1 %call to i8
  store i8 %frombool, ptr %success, align 1
  %5 = load ptr, ptr %new_parsed.addr, align 8
  %username = getelementptr inbounds %"struct.url::Parsed", ptr %5, i32 0, i32 1
  call void @_ZN3url9Component5resetEv(ptr noundef nonnull align 4 dereferenceable(8) %username)
  %6 = load ptr, ptr %new_parsed.addr, align 8
  %password = getelementptr inbounds %"struct.url::Parsed", ptr %6, i32 0, i32 2
  call void @_ZN3url9Component5resetEv(ptr noundef nonnull align 4 dereferenceable(8) %password)
  %7 = load ptr, ptr %new_parsed.addr, align 8
  %host = getelementptr inbounds %"struct.url::Parsed", ptr %7, i32 0, i32 3
  call void @_ZN3url9Component5resetEv(ptr noundef nonnull align 4 dereferenceable(8) %host)
  %8 = load ptr, ptr %new_parsed.addr, align 8
  %port = getelementptr inbounds %"struct.url::Parsed", ptr %8, i32 0, i32 4
  call void @_ZN3url9Component5resetEv(ptr noundef nonnull align 4 dereferenceable(8) %port)
  %9 = load ptr, ptr %source.addr, align 8
  %path = getelementptr inbounds %"struct.url::URLComponentSource", ptr %9, i32 0, i32 5
  %10 = load ptr, ptr %path, align 8
  %11 = load ptr, ptr %parsed.addr, align 8
  %path3 = getelementptr inbounds %"struct.url::Parsed", ptr %11, i32 0, i32 5
  %12 = load ptr, ptr %output.addr, align 8
  %13 = load ptr, ptr %new_parsed.addr, align 8
  %path4 = getelementptr inbounds %"struct.url::Parsed", ptr %13, i32 0, i32 5
  %call5 = call noundef zeroext i1 @_ZN3url12_GLOBAL__N_127DoCanonicalizePathComponentIchEEbPKT_RKNS_9ComponentEcPNS_12CanonOutputTIcEEPS5_(ptr noundef %10, ptr noundef nonnull align 4 dereferenceable(8) %path3, i8 noundef signext 0, ptr noundef %12, ptr noundef %path4)
  %conv = zext i1 %call5 to i32
  %14 = load i8, ptr %success, align 1
  %tobool = trunc i8 %14 to i1
  %conv6 = zext i1 %tobool to i32
  %and = and i32 %conv6, %conv
  %tobool7 = icmp ne i32 %and, 0
  %frombool8 = zext i1 %tobool7 to i8
  store i8 %frombool8, ptr %success, align 1
  %15 = load ptr, ptr %source.addr, align 8
  %query = getelementptr inbounds %"struct.url::URLComponentSource", ptr %15, i32 0, i32 6
  %16 = load ptr, ptr %query, align 8
  %17 = load ptr, ptr %parsed.addr, align 8
  %query9 = getelementptr inbounds %"struct.url::Parsed", ptr %17, i32 0, i32 6
  %18 = load ptr, ptr %output.addr, align 8
  %19 = load ptr, ptr %new_parsed.addr, align 8
  %query10 = getelementptr inbounds %"struct.url::Parsed", ptr %19, i32 0, i32 6
  %call11 = call noundef zeroext i1 @_ZN3url12_GLOBAL__N_127DoCanonicalizePathComponentIchEEbPKT_RKNS_9ComponentEcPNS_12CanonOutputTIcEEPS5_(ptr noundef %16, ptr noundef nonnull align 4 dereferenceable(8) %query9, i8 noundef signext 63, ptr noundef %18, ptr noundef %query10)
  %conv12 = zext i1 %call11 to i32
  %20 = load i8, ptr %success, align 1
  %tobool13 = trunc i8 %20 to i1
  %conv14 = zext i1 %tobool13 to i32
  %and15 = and i32 %conv14, %conv12
  %tobool16 = icmp ne i32 %and15, 0
  %frombool17 = zext i1 %tobool16 to i8
  store i8 %frombool17, ptr %success, align 1
  %21 = load ptr, ptr %source.addr, align 8
  %ref = getelementptr inbounds %"struct.url::URLComponentSource", ptr %21, i32 0, i32 7
  %22 = load ptr, ptr %ref, align 8
  %23 = load ptr, ptr %parsed.addr, align 8
  %ref18 = getelementptr inbounds %"struct.url::Parsed", ptr %23, i32 0, i32 7
  %24 = load ptr, ptr %output.addr, align 8
  %25 = load ptr, ptr %new_parsed.addr, align 8
  %ref19 = getelementptr inbounds %"struct.url::Parsed", ptr %25, i32 0, i32 7
  %call20 = call noundef zeroext i1 @_ZN3url12_GLOBAL__N_127DoCanonicalizePathComponentIchEEbPKT_RKNS_9ComponentEcPNS_12CanonOutputTIcEEPS5_(ptr noundef %22, ptr noundef nonnull align 4 dereferenceable(8) %ref18, i8 noundef signext 35, ptr noundef %24, ptr noundef %ref19)
  %conv21 = zext i1 %call20 to i32
  %26 = load i8, ptr %success, align 1
  %tobool22 = trunc i8 %26 to i1
  %conv23 = zext i1 %tobool22 to i32
  %and24 = and i32 %conv23, %conv21
  %tobool25 = icmp ne i32 %and24, 0
  %frombool26 = zext i1 %tobool25 to i8
  store i8 %frombool26, ptr %success, align 1
  %27 = load i8, ptr %success, align 1
  %tobool27 = trunc i8 %27 to i1
  ret i1 %tobool27
}

; Function Attrs: mustprogress nounwind uwtable
define linkonce_odr dso_local void @_ZN3url18URLComponentSourceIcEC2EPKc(ptr noundef nonnull align 8 dereferenceable(64) %this, ptr noundef %default_value) unnamed_addr #1 comdat align 2 {
entry:
  %this.addr = alloca ptr, align 8
  %default_value.addr = alloca ptr, align 8
  store ptr %this, ptr %this.addr, align 8
  store ptr %default_value, ptr %default_value.addr, align 8
  %this1 = load ptr, ptr %this.addr, align 8
  %scheme = getelementptr inbounds %"struct.url::URLComponentSource", ptr %this1, i32 0, i32 0
  %0 = load ptr, ptr %default_value.addr, align 8
  store ptr %0, ptr %scheme, align 8
  %username = getelementptr inbounds %"struct.url::URLComponentSource", ptr %this1, i32 0, i32 1
  %1 = load ptr, ptr %default_value.addr, align 8
  store ptr %1, ptr %username, align 8
  %password = getelementptr inbounds %"struct.url::URLComponentSource", ptr %this1, i32 0, i32 2
  %2 = load ptr, ptr %default_value.addr, align 8
  store ptr %2, ptr %password, align 8
  %host = getelementptr inbounds %"struct.url::URLComponentSource", ptr %this1, i32 0, i32 3
  %3 = load ptr, ptr %default_value.addr, align 8
  store ptr %3, ptr %host, align 8
  %port = getelementptr inbounds %"struct.url::URLComponentSource", ptr %this1, i32 0, i32 4
  %4 = load ptr, ptr %default_value.addr, align 8
  store ptr %4, ptr %port, align 8
  %path = getelementptr inbounds %"struct.url::URLComponentSource", ptr %this1, i32 0, i32 5
  %5 = load ptr, ptr %default_value.addr, align 8
  store ptr %5, ptr %path, align 8
  %query = getelementptr inbounds %"struct.url::URLComponentSource", ptr %this1, i32 0, i32 6
  %6 = load ptr, ptr %default_value.addr, align 8
  store ptr %6, ptr %query, align 8
  %ref = getelementptr inbounds %"struct.url::URLComponentSource", ptr %this1, i32 0, i32 7
  %7 = load ptr, ptr %default_value.addr, align 8
  store ptr %7, ptr %ref, align 8
  ret void
}

; Function Attrs: mustprogress uwtable
define dso_local noundef zeroext i1 @_ZN3url14ReplacePathURLEPKcRKNS_6ParsedERKNS_12ReplacementsIcEEPNS_12CanonOutputTIcEEPS2_(ptr noundef %base, ptr noundef nonnull align 8 dereferenceable(72) %base_parsed, ptr noundef nonnull align 8 dereferenceable(136) %replacements, ptr noundef %output, ptr noundef %new_parsed) #0 personality ptr @__gxx_personality_v0 {
entry:
  %base.addr = alloca ptr, align 8
  %base_parsed.addr = alloca ptr, align 8
  %replacements.addr = alloca ptr, align 8
  %output.addr = alloca ptr, align 8
  %new_parsed.addr = alloca ptr, align 8
  %source = alloca %"struct.url::URLComponentSource", align 8
  %parsed = alloca %"struct.url::Parsed", align 8
  %exn.slot = alloca ptr, align 8
  %ehselector.slot = alloca i32, align 4
  store ptr %base, ptr %base.addr, align 8
  store ptr %base_parsed, ptr %base_parsed.addr, align 8
  store ptr %replacements, ptr %replacements.addr, align 8
  store ptr %output, ptr %output.addr, align 8
  store ptr %new_parsed, ptr %new_parsed.addr, align 8
  %0 = load ptr, ptr %base.addr, align 8
  call void @_ZN3url18URLComponentSourceIcEC2EPKc(ptr noundef nonnull align 8 dereferenceable(64) %source, ptr noundef %0)
  %1 = load ptr, ptr %base_parsed.addr, align 8
  call void @_ZN3url6ParsedC1ERKS0_(ptr noundef nonnull align 8 dereferenceable(72) %parsed, ptr noundef nonnull align 8 dereferenceable(72) %1)
  %2 = load ptr, ptr %base.addr, align 8
  %3 = load ptr, ptr %replacements.addr, align 8
  invoke void @_ZN3url23SetupOverrideComponentsEPKcRKNS_12ReplacementsIcEEPNS_18URLComponentSourceIcEEPNS_6ParsedE(ptr noundef %2, ptr noundef nonnull align 8 dereferenceable(136) %3, ptr noundef %source, ptr noundef %parsed)
          to label %invoke.cont unwind label %lpad

invoke.cont:                                      ; preds = %entry
  %4 = load ptr, ptr %output.addr, align 8
  %5 = load ptr, ptr %new_parsed.addr, align 8
  %call = invoke noundef zeroext i1 @_ZN3url12_GLOBAL__N_121DoCanonicalizePathURLIchEEbRKNS_18URLComponentSourceIT_EERKNS_6ParsedEPNS_12CanonOutputTIcEEPS7_(ptr noundef nonnull align 8 dereferenceable(64) %source, ptr noundef nonnull align 8 dereferenceable(72) %parsed, ptr noundef %4, ptr noundef %5)
          to label %invoke.cont1 unwind label %lpad

invoke.cont1:                                     ; preds = %invoke.cont
  call void @_ZN3url6ParsedD1Ev(ptr noundef nonnull align 8 dereferenceable(72) %parsed) #8
  ret i1 %call

lpad:                                             ; preds = %invoke.cont, %entry
  %6 = landingpad { ptr, i32 }
          cleanup
  %7 = extractvalue { ptr, i32 } %6, 0
  store ptr %7, ptr %exn.slot, align 8
  %8 = extractvalue { ptr, i32 } %6, 1
  store i32 %8, ptr %ehselector.slot, align 4
  call void @_ZN3url6ParsedD1Ev(ptr noundef nonnull align 8 dereferenceable(72) %parsed) #8
  br label %eh.resume

eh.resume:                                        ; preds = %lpad
  %exn = load ptr, ptr %exn.slot, align 8
  %sel = load i32, ptr %ehselector.slot, align 4
  %lpad.val = insertvalue { ptr, i32 } poison, ptr %exn, 0
  %lpad.val2 = insertvalue { ptr, i32 } %lpad.val, i32 %sel, 1
  resume { ptr, i32 } %lpad.val2
}