; Function Attrs: mustprogress uwtable
define dso_local noundef zeroext i1 @_ZN3url14ReplacePathURLEPKcRKNS_6ParsedERKNS_12ReplacementsIcEEPNS_12CanonOutputTIcEEPS2_(ptr noundef %base, ptr noundef nonnull align 8 dereferenceable(72) %base_parsed, ptr noundef nonnull align 8 dereferenceable(136) %replacements, ptr noundef %output, ptr noundef %new_parsed) local_unnamed_addr #0 personality ptr @__gxx_personality_v0 {
entry:
  %source = alloca %"struct.url::URLComponentSource", align 8
  %parsed = alloca %"struct.url::Parsed", align 8
  store ptr %base, ptr %source, align 8
  %username.i = getelementptr inbounds i8, ptr %source, i64 8
  store ptr %base, ptr %username.i, align 8
  %password.i = getelementptr inbounds i8, ptr %source, i64 16
  store ptr %base, ptr %password.i, align 8
  %host.i = getelementptr inbounds i8, ptr %source, i64 24
  store ptr %base, ptr %host.i, align 8
  %port.i = getelementptr inbounds i8, ptr %source, i64 32
  store ptr %base, ptr %port.i, align 8
  %path.i = getelementptr inbounds i8, ptr %source, i64 40
  store ptr %base, ptr %path.i, align 8
  %query.i = getelementptr inbounds i8, ptr %source, i64 48
  store ptr %base, ptr %query.i, align 8
  %ref.i = getelementptr inbounds i8, ptr %source, i64 56
  store ptr %base, ptr %ref.i, align 8
  call void @_ZN3url6ParsedC1ERKS0_(ptr noundef nonnull align 8 dereferenceable(72) %parsed, ptr noundef nonnull align 8 dereferenceable(72) %base_parsed)
  invoke void @_ZN3url23SetupOverrideComponentsEPKcRKNS_12ReplacementsIcEEPNS_18URLComponentSourceIcEEPNS_6ParsedE(ptr noundef %base, ptr noundef nonnull align 8 dereferenceable(136) %replacements, ptr noundef nonnull %source, ptr noundef nonnull %parsed)
          to label %invoke.cont unwind label %lpad

invoke.cont:                                      ; preds = %entry
  %0 = load ptr, ptr %source, align 8
  %call.i9 = invoke noundef zeroext i1 @_ZN3url18CanonicalizeSchemeEPKcRKNS_9ComponentEPNS_12CanonOutputTIcEEPS2_(ptr noundef %0, ptr noundef nonnull align 4 dereferenceable(8) %parsed, ptr noundef %output, ptr noundef %new_parsed)
          to label %call.i.noexc unwind label %lpad

call.i.noexc:                                     ; preds = %invoke.cont
  %username.i2 = getelementptr inbounds i8, ptr %new_parsed, i64 8
  store <4 x i32> <i32 0, i32 -1, i32 0, i32 -1>, ptr %username.i2, align 4
  %host.i4 = getelementptr inbounds i8, ptr %new_parsed, i64 24
  store <4 x i32> <i32 0, i32 -1, i32 0, i32 -1>, ptr %host.i4, align 4
  %1 = load ptr, ptr %path.i, align 8
  %path3.i = getelementptr inbounds i8, ptr %parsed, i64 40
  %path4.i = getelementptr inbounds i8, ptr %new_parsed, i64 40
  %call5.i10 = invoke fastcc noundef zeroext i1 @_ZN3url12_GLOBAL__N_127DoCanonicalizePathComponentIchEEbPKT_RKNS_9ComponentEcPNS_12CanonOutputTIcEEPS5_(ptr noundef %1, ptr noundef nonnull align 4 dereferenceable(8) %path3.i, i8 noundef signext 0, ptr noundef %output, ptr noundef nonnull %path4.i)
          to label %call5.i.noexc unwind label %lpad

call5.i.noexc:                                    ; preds = %call.i.noexc
  %2 = load ptr, ptr %query.i, align 8
  %query9.i = getelementptr inbounds i8, ptr %parsed, i64 48
  %query10.i = getelementptr inbounds i8, ptr %new_parsed, i64 48
  %call11.i11 = invoke fastcc noundef zeroext i1 @_ZN3url12_GLOBAL__N_127DoCanonicalizePathComponentIchEEbPKT_RKNS_9ComponentEcPNS_12CanonOutputTIcEEPS5_(ptr noundef %2, ptr noundef nonnull align 4 dereferenceable(8) %query9.i, i8 noundef signext 63, ptr noundef %output, ptr noundef nonnull %query10.i)
          to label %call11.i.noexc unwind label %lpad

call11.i.noexc:                                   ; preds = %call5.i.noexc
  %3 = load ptr, ptr %ref.i, align 8
  %ref18.i = getelementptr inbounds i8, ptr %parsed, i64 56
  %ref19.i = getelementptr inbounds i8, ptr %new_parsed, i64 56
  %call20.i12 = invoke fastcc noundef zeroext i1 @_ZN3url12_GLOBAL__N_127DoCanonicalizePathComponentIchEEbPKT_RKNS_9ComponentEcPNS_12CanonOutputTIcEEPS5_(ptr noundef %3, ptr noundef nonnull align 4 dereferenceable(8) %ref18.i, i8 noundef signext 35, ptr noundef %output, ptr noundef nonnull %ref19.i)
          to label %invoke.cont1 unwind label %lpad

invoke.cont1:                                     ; preds = %call11.i.noexc
  %and20.i = and i1 %call.i9, %call5.i10
  %and1521.i = and i1 %and20.i, %call11.i11
  %and2422.i = and i1 %and1521.i, %call20.i12
  call void @_ZN3url6ParsedD1Ev(ptr noundef nonnull align 8 dereferenceable(72) %parsed) #9
  ret i1 %and2422.i

lpad:                                             ; preds = %call11.i.noexc, %call5.i.noexc, %call.i.noexc, %invoke.cont, %entry
  %4 = landingpad { ptr, i32 }
          cleanup
  call void @_ZN3url6ParsedD1Ev(ptr noundef nonnull align 8 dereferenceable(72) %parsed) #9
  resume { ptr, i32 } %4
}